Certificate:
    Data:
        Version: 1 (0x0)
        Serial Number: 2 (0x2)
    Signature Algorithm: md5WithRSAEncryption
        Issuer: C=US, ST=CA, O=Open vSwitch, OU=controllerca, CN=OVS controllerca CA Certificate (2013 May 18 11:56:04)
        Validity
            Not Before: May 18 06:45:22 2013 GMT
            Not After : May 18 06:45:22 2014 GMT
        Subject: C=US, ST=CA, O=Open vSwitch, OU=Open vSwitch certifier, CN=ctl id:9c4963ab-bb40-4bb9-843b-6b4df378f084
        Subject Public Key Info:
            Public Key Algorithm: rsaEncryption
                Public-Key: (2048 bit)
                Modulus:
                    00:cb:70:32:96:72:0e:7f:9b:d0:44:0b:82:72:2b:
                    e0:1f:f2:21:b9:af:1d:a9:c1:1c:6a:47:cc:2e:8d:
                    63:87:e1:cf:47:b5:4a:34:f3:5d:94:b5:33:2d:12:
                    d8:27:b1:1b:af:48:9f:7b:89:b6:05:27:d2:61:22:
                    0d:dc:40:98:02:5e:e6:bd:b4:dd:85:20:ab:54:da:
                    70:e2:0f:4a:0a:cf:f5:7c:d8:f7:33:5f:95:50:5f:
                    ba:ba:68:98:b3:7b:dd:fb:4d:fd:3a:4b:28:16:63:
                    62:af:31:58:ef:dd:0e:ad:f2:1a:92:74:7e:ce:b7:
                    5a:47:73:db:1f:75:d8:b7:cd:c4:ef:ff:4a:53:f1:
                    8c:33:f5:a4:68:ee:46:09:33:fe:60:47:0d:fe:c9:
                    98:f7:76:f4:88:4b:6c:35:fc:9a:30:74:88:77:66:
                    a2:06:1f:1e:6e:f0:35:93:f3:84:8b:d7:b9:14:df:
                    fe:08:83:31:3c:c5:c7:c5:9f:3c:46:46:24:9e:c9:
                    69:ff:b7:87:cb:9b:5a:ee:f9:de:ea:03:cb:01:31:
                    de:8f:e9:b4:6e:90:70:08:cc:5c:95:46:fb:9f:e4:
                    04:bc:68:ba:f1:50:8e:3a:7a:db:7b:9c:08:ff:a3:
                    53:2d:19:a9:97:d5:e3:64:8c:02:ce:f8:11:65:9c:
                    1b:ad
                Exponent: 65537 (0x10001)
    Signature Algorithm: md5WithRSAEncryption
         26:39:17:88:35:62:db:2b:72:6b:7e:80:3a:38:d4:ac:93:7c:
         5f:a3:ec:86:5f:e8:88:74:a5:4f:a2:48:3d:75:be:61:b5:67:
         22:c5:16:b2:4d:73:df:a2:69:5a:f4:62:cb:9f:bf:1a:5c:86:
         3b:9f:a1:46:7e:e0:74:60:3e:3c:fb:26:78:c2:42:46:c7:23:
         40:87:7d:ad:2a:7b:aa:92:2b:af:a9:6b:91:7c:f9:24:7e:7a:
         0a:f2:25:90:03:c0:a3:92:51:15:65:88:cc:51:fc:d7:33:3e:
         84:4d:f5:66:d6:d1:bf:88:3c:c4:ae:26:70:26:ca:e8:65:81:
         39:37:f4:6f:fb:65:74:e8:07:b4:33:c7:95:1d:51:53:ca:04:
         d3:4a:23:ac:74:19:49:2e:4a:85:14:d9:fb:fb:d3:55:cc:f9:
         85:54:96:04:58:cc:23:c5:f6:4f:b5:b9:07:8c:7e:b6:c5:dd:
         97:a0:81:af:93:42:f5:ea:e5:d4:c9:b6:2a:ae:56:94:08:a6:
         9e:6f:0d:d9:e2:25:1d:8c:74:3e:f4:1f:dd:8e:fe:1a:05:c5:
         89:47:c0:fb:cc:47:3c:90:0c:6b:59:12:78:f2:dd:aa:b7:85:
         fa:f8:ca:84:f5:92:62:9e:de:c0:b9:25:cf:0e:f9:89:c5:01:
         59:f2:3c:43
-----BEGIN CERTIFICATE-----
MIIDhzCCAm8CAQIwDQYJKoZIhvcNAQEEBQAwgYkxCzAJBgNVBAYTAlVTMQswCQYD
VQQIEwJDQTEVMBMGA1UEChMMT3BlbiB2U3dpdGNoMRUwEwYDVQQLEwxjb250cm9s
bGVyY2ExPzA9BgNVBAMTNk9WUyBjb250cm9sbGVyY2EgQ0EgQ2VydGlmaWNhdGUg
KDIwMTMgTWF5IDE4IDExOjU2OjA0KTAeFw0xMzA1MTgwNjQ1MjJaFw0xNDA1MTgw
NjQ1MjJaMIGIMQswCQYDVQQGEwJVUzELMAkGA1UECBMCQ0ExFTATBgNVBAoTDE9w
ZW4gdlN3aXRjaDEfMB0GA1UECxMWT3BlbiB2U3dpdGNoIGNlcnRpZmllcjE0MDIG
A1UEAxMrY3RsIGlkOjljNDk2M2FiLWJiNDAtNGJiOS04NDNiLTZiNGRmMzc4ZjA4
NDCCASIwDQYJKoZIhvcNAQEBBQADggEPADCCAQoCggEBAMtwMpZyDn+b0EQLgnIr
4B/yIbmvHanBHGpHzC6NY4fhz0e1SjTzXZS1My0S2CexG69In3uJtgUn0mEiDdxA
mAJe5r203YUgq1TacOIPSgrP9XzY9zNflVBfurpomLN73ftN/TpLKBZjYq8xWO/d
Dq3yGpJ0fs63Wkdz2x912LfNxO//SlPxjDP1pGjuRgkz/mBHDf7JmPd29IhLbDX8
mjB0iHdmogYfHm7wNZPzhIvXuRTf/giDMTzFx8WfPEZGJJ7Jaf+3h8ubWu753uoD
ywEx3o/ptG6QcAjMXJVG+5/kBLxouvFQjjp623ucCP+jUy0ZqZfV42SMAs74EWWc
G60CAwEAATANBgkqhkiG9w0BAQQFAAOCAQEAJjkXiDVi2ytya36AOjjUrJN8X6Ps
hl/oiHSlT6JIPXW+YbVnIsUWsk1z36JpWvRiy5+/GlyGO5+hRn7gdGA+PPsmeMJC
RscjQId9rSp7qpIrr6lrkXz5JH56CvIlkAPAo5JRFWWIzFH81zM+hE31ZtbRv4g8
xK4mcCbK6GWBOTf0b/tldOgHtDPHlR1RU8oE00ojrHQZSS5KhRTZ+/vTVcz5hVSW
BFjMI8X2T7W5B4x+tsXdl6CBr5NC9erl1Mm2Kq5WlAimnm8N2eIlHYx0PvQf3Y7+
GgXFiUfA+8xHPJAMa1kSePLdqreF+vjKhPWSYp7ewLklzw75icUBWfI8Qw==
-----END CERTIFICATE-----
