Certificate:
    Data:
        Version: 1 (0x0)
        Serial Number: 1 (0x1)
    Signature Algorithm: md5WithRSAEncryption
        Issuer: C=US, ST=CA, O=Open vSwitch, OU=controllerca, CN=OVS controllerca CA Certificate (2013 May 18 11:56:04)
        Validity
            Not Before: May 18 06:26:05 2013 GMT
            Not After : May 18 06:26:05 2019 GMT
        Subject: C=US, ST=CA, O=Open vSwitch, OU=controllerca, CN=OVS controllerca CA Certificate (2013 May 18 11:56:04)
        Subject Public Key Info:
            Public Key Algorithm: rsaEncryption
                Public-Key: (2048 bit)
                Modulus:
                    00:bb:8d:b7:37:72:cd:b1:5e:76:2c:da:a5:a5:5f:
                    ea:9f:7d:36:68:b5:d3:10:76:7f:62:fd:24:ed:61:
                    33:1d:7d:1f:fa:fc:56:e4:f7:28:aa:bd:56:4c:96:
                    c7:3c:68:5a:f1:98:74:eb:9c:bc:ca:8d:26:d5:82:
                    a7:13:56:c2:14:3d:d6:34:17:b5:b5:f7:d2:4c:af:
                    94:a6:98:81:b4:f8:91:9d:fc:2a:8a:13:6b:4e:b3:
                    52:d8:c4:60:9c:18:b0:9b:67:26:bd:74:a9:98:e8:
                    b4:3c:48:c6:a4:aa:94:dd:64:6a:5e:57:5b:30:e4:
                    ed:2e:8a:69:1d:1c:db:54:39:bf:80:ae:9c:a6:6a:
                    ae:24:de:4d:53:83:94:c6:1c:53:ba:39:fd:b8:be:
                    8f:7e:61:c7:0d:25:25:26:a9:8f:8c:4b:2f:b2:18:
                    da:c7:46:c4:45:c0:6f:f5:4d:cc:3c:d0:82:95:cc:
                    8e:10:32:b3:2f:91:6a:21:aa:68:a0:4f:3d:ed:21:
                    0e:cf:d1:ed:ee:4f:ac:cd:2d:24:7a:b3:b7:bb:7c:
                    f6:23:20:a1:a2:d4:de:04:4b:0b:2c:4b:8c:8e:02:
                    1b:be:1b:13:85:22:b3:d7:be:70:d4:5f:c7:ce:82:
                    b5:82:d1:1b:a8:6c:ea:88:a9:dd:f6:7f:ab:22:de:
                    81:1d
                Exponent: 65537 (0x10001)
    Signature Algorithm: md5WithRSAEncryption
         98:92:e7:c2:57:7c:23:f9:5c:e4:a4:5b:9b:f9:0b:0c:c4:61:
         2a:34:78:a9:a1:bb:da:80:27:9e:f1:8c:93:70:02:8d:ea:c8:
         14:7e:d6:30:a5:56:ea:85:8c:fb:c6:f0:28:bc:e3:84:26:6e:
         7c:27:10:6d:d8:14:a9:e7:65:16:b3:b6:93:4f:00:3e:6b:d8:
         c4:a8:8a:e5:45:e2:63:e6:c3:45:5e:c0:ce:3e:86:20:30:ac:
         79:81:02:58:c6:10:f5:45:d0:0c:58:af:c6:a1:86:04:e4:8e:
         49:f6:d2:af:1b:12:8a:21:62:56:ba:96:93:46:2e:e7:fe:56:
         9c:2e:b4:5b:8a:15:91:5c:a0:94:2f:09:23:ac:4d:c2:f3:d2:
         85:b8:f4:02:cf:c8:79:f9:17:0e:9c:0a:ee:1a:7f:ec:3c:1a:
         fc:37:6e:e1:b5:75:2b:d7:fa:85:76:97:da:52:17:d8:f2:13:
         96:1b:a6:82:a8:95:e4:aa:2e:94:06:eb:15:ad:54:4c:c0:0a:
         87:a0:72:44:bb:eb:76:6f:59:6d:4b:f2:9e:fe:c0:a2:31:d3:
         76:5a:2f:11:7f:f7:94:40:15:cb:96:47:4f:ee:38:7d:18:45:
         b7:48:a9:b3:49:a5:59:06:54:8c:73:23:61:51:e9:a6:d0:fc:
         0b:1a:39:71
-----BEGIN CERTIFICATE-----
MIIDiDCCAnACAQEwDQYJKoZIhvcNAQEEBQAwgYkxCzAJBgNVBAYTAlVTMQswCQYD
VQQIEwJDQTEVMBMGA1UEChMMT3BlbiB2U3dpdGNoMRUwEwYDVQQLEwxjb250cm9s
bGVyY2ExPzA9BgNVBAMTNk9WUyBjb250cm9sbGVyY2EgQ0EgQ2VydGlmaWNhdGUg
KDIwMTMgTWF5IDE4IDExOjU2OjA0KTAeFw0xMzA1MTgwNjI2MDVaFw0xOTA1MTgw
NjI2MDVaMIGJMQswCQYDVQQGEwJVUzELMAkGA1UECBMCQ0ExFTATBgNVBAoTDE9w
ZW4gdlN3aXRjaDEVMBMGA1UECxMMY29udHJvbGxlcmNhMT8wPQYDVQQDEzZPVlMg
Y29udHJvbGxlcmNhIENBIENlcnRpZmljYXRlICgyMDEzIE1heSAxOCAxMTo1Njow
NCkwggEiMA0GCSqGSIb3DQEBAQUAA4IBDwAwggEKAoIBAQC7jbc3cs2xXnYs2qWl
X+qffTZotdMQdn9i/STtYTMdfR/6/Fbk9yiqvVZMlsc8aFrxmHTrnLzKjSbVgqcT
VsIUPdY0F7W199JMr5SmmIG0+JGd/CqKE2tOs1LYxGCcGLCbZya9dKmY6LQ8SMak
qpTdZGpeV1sw5O0uimkdHNtUOb+Arpymaq4k3k1Tg5TGHFO6Of24vo9+YccNJSUm
qY+MSy+yGNrHRsRFwG/1Tcw80IKVzI4QMrMvkWohqmigTz3tIQ7P0e3uT6zNLSR6
s7e7fPYjIKGi1N4ESwssS4yOAhu+GxOFIrPXvnDUX8fOgrWC0RuobOqIqd32f6si
3oEdAgMBAAEwDQYJKoZIhvcNAQEEBQADggEBAJiS58JXfCP5XOSkW5v5CwzEYSo0
eKmhu9qAJ57xjJNwAo3qyBR+1jClVuqFjPvG8Ci844QmbnwnEG3YFKnnZRaztpNP
AD5r2MSoiuVF4mPmw0VewM4+hiAwrHmBAljGEPVF0AxYr8ahhgTkjkn20q8bEooh
Yla6lpNGLuf+VpwutFuKFZFcoJQvCSOsTcLz0oW49ALPyHn5Fw6cCu4af+w8Gvw3
buG1dSvX+oV2l9pSF9jyE5YbpoKoleSqLpQG6xWtVEzACoegckS763ZvWW1L8p7+
wKIx03ZaLxF/95RAFcuWR0/uOH0YRbdIqbNJpVkGVIxzI2FR6abQ/AsaOXE=
-----END CERTIFICATE-----
