Certificate:
    Data:
        Version: 1 (0x0)
        Serial Number: 1 (0x1)
    Signature Algorithm: md5WithRSAEncryption
        Issuer: C=US, ST=CA, O=Open vSwitch, OU=switchca, CN=OVS switchca CA Certificate (2013 May 18 11:56:04)
        Validity
            Not Before: May 18 06:26:05 2013 GMT
            Not After : May 18 06:26:05 2019 GMT
        Subject: C=US, ST=CA, O=Open vSwitch, OU=switchca, CN=OVS switchca CA Certificate (2013 May 18 11:56:04)
        Subject Public Key Info:
            Public Key Algorithm: rsaEncryption
                Public-Key: (2048 bit)
                Modulus:
                    00:e3:3f:79:c7:60:82:59:89:b8:b7:96:7b:31:95:
                    ad:f1:92:0f:99:4c:70:e4:76:b3:51:1f:32:cd:4d:
                    d6:9a:89:4b:98:fd:f4:5f:b7:55:f4:01:05:e0:80:
                    7e:9e:fa:9f:28:39:e1:86:54:63:95:d7:e9:6a:5f:
                    94:69:ea:e1:1c:04:f0:2e:fe:d3:a1:cb:9a:5d:3d:
                    5b:4f:0e:ad:17:f5:01:28:7d:3a:11:91:4a:04:a8:
                    f3:a9:43:38:8f:72:23:f0:cd:c7:5b:0d:2d:a3:30:
                    4d:bd:64:ec:65:3d:45:3f:88:ff:bc:9f:bb:f9:aa:
                    47:e4:31:01:d4:72:f7:b3:98:20:0b:58:79:7f:f0:
                    c1:fe:0b:05:13:3a:9f:17:e3:8c:12:60:2e:76:b2:
                    14:42:28:01:c0:e7:0a:aa:ec:c3:13:6f:26:7c:d2:
                    88:69:36:4f:43:fb:81:63:c9:56:a2:b1:a4:3e:4f:
                    7b:ec:a5:4a:9d:c0:a2:c0:8f:19:60:52:54:24:91:
                    6d:31:c1:45:8c:78:fe:f8:61:03:98:8f:97:a0:23:
                    7d:90:e5:d6:e2:34:ee:ff:bf:d1:b5:16:ff:d5:0d:
                    8d:c9:49:8b:61:b0:87:14:9c:47:ad:b4:a3:ce:6e:
                    72:14:94:60:22:ad:22:2f:36:6d:83:6b:a4:ff:57:
                    0e:5b
                Exponent: 65537 (0x10001)
    Signature Algorithm: md5WithRSAEncryption
         dc:b8:5c:af:12:83:2b:19:5b:5c:03:d9:69:ee:c2:2e:24:57:
         e6:8b:28:8f:9d:f7:47:e3:6d:cb:ba:66:1e:58:da:28:32:8a:
         40:01:0f:39:ca:bb:fc:ad:ad:7b:9c:fa:fc:0b:87:63:12:59:
         6e:ef:c1:34:c0:28:c1:ed:c4:46:fe:ac:e1:6e:18:28:8e:9d:
         86:ec:6a:a5:ac:91:8c:5d:53:a1:db:64:b8:2f:03:80:86:d2:
         4e:bb:26:aa:ac:9e:5d:e0:e1:5c:d0:f7:bc:fa:3d:61:bb:61:
         79:b8:d4:b7:4d:7e:8b:4f:2a:22:e5:c5:0d:fc:bd:b1:df:01:
         84:67:b1:8d:df:cc:ba:ee:90:56:6c:16:73:23:d7:33:b8:ff:
         8a:b5:a6:61:76:15:2a:63:a0:41:9f:cf:54:ae:59:d1:2b:9f:
         56:ff:05:6d:3f:ec:3f:09:75:eb:31:64:c5:11:f4:e6:a6:8c:
         ad:a7:4d:a3:ab:3f:44:f8:13:27:b4:88:e6:45:0c:e3:67:46:
         74:bf:bd:40:00:29:4e:a3:e6:47:ab:32:35:a6:53:ab:ec:be:
         6a:36:36:bf:13:59:cd:8d:10:15:f0:6f:8a:ec:7e:df:a2:b4:
         ef:57:0e:c9:cf:3c:1d:3d:4b:79:ac:b4:9f:62:08:81:0d:02:
         22:8b:7f:19
-----BEGIN CERTIFICATE-----
MIIDeDCCAmACAQEwDQYJKoZIhvcNAQEEBQAwgYExCzAJBgNVBAYTAlVTMQswCQYD
VQQIEwJDQTEVMBMGA1UEChMMT3BlbiB2U3dpdGNoMREwDwYDVQQLEwhzd2l0Y2hj
YTE7MDkGA1UEAxMyT1ZTIHN3aXRjaGNhIENBIENlcnRpZmljYXRlICgyMDEzIE1h
eSAxOCAxMTo1NjowNCkwHhcNMTMwNTE4MDYyNjA1WhcNMTkwNTE4MDYyNjA1WjCB
gTELMAkGA1UEBhMCVVMxCzAJBgNVBAgTAkNBMRUwEwYDVQQKEwxPcGVuIHZTd2l0
Y2gxETAPBgNVBAsTCHN3aXRjaGNhMTswOQYDVQQDEzJPVlMgc3dpdGNoY2EgQ0Eg
Q2VydGlmaWNhdGUgKDIwMTMgTWF5IDE4IDExOjU2OjA0KTCCASIwDQYJKoZIhvcN
AQEBBQADggEPADCCAQoCggEBAOM/ecdgglmJuLeWezGVrfGSD5lMcOR2s1EfMs1N
1pqJS5j99F+3VfQBBeCAfp76nyg54YZUY5XX6WpflGnq4RwE8C7+06HLml09W08O
rRf1ASh9OhGRSgSo86lDOI9yI/DNx1sNLaMwTb1k7GU9RT+I/7yfu/mqR+QxAdRy
97OYIAtYeX/wwf4LBRM6nxfjjBJgLnayFEIoAcDnCqrswxNvJnzSiGk2T0P7gWPJ
VqKxpD5Pe+ylSp3AosCPGWBSVCSRbTHBRYx4/vhhA5iPl6AjfZDl1uI07v+/0bUW
/9UNjclJi2GwhxScR620o85uchSUYCKtIi82bYNrpP9XDlsCAwEAATANBgkqhkiG
9w0BAQQFAAOCAQEA3LhcrxKDKxlbXAPZae7CLiRX5osoj533R+Nty7pmHljaKDKK
QAEPOcq7/K2te5z6/AuHYxJZbu/BNMAowe3ERv6s4W4YKI6dhuxqpayRjF1Todtk
uC8DgIbSTrsmqqyeXeDhXND3vPo9YbthebjUt01+i08qIuXFDfy9sd8BhGexjd/M
uu6QVmwWcyPXM7j/irWmYXYVKmOgQZ/PVK5Z0SufVv8FbT/sPwl16zFkxRH05qaM
radNo6s/RPgTJ7SI5kUM42dGdL+9QAApTqPmR6syNaZTq+y+ajY2vxNZzY0QFfBv
iux+36K071cOyc88HT1Leay0n2IIgQ0CIot/GQ==
-----END CERTIFICATE-----
