Certificate:
    Data:
        Version: 1 (0x0)
        Serial Number: 2 (0x2)
    Signature Algorithm: md5WithRSAEncryption
        Issuer: C=US, ST=CA, O=Open vSwitch, OU=switchca, CN=OVS switchca CA Certificate (2013 May 18 11:56:04)
        Validity
            Not Before: May 18 06:46:17 2013 GMT
            Not After : May 18 06:46:17 2014 GMT
        Subject: C=US, ST=CA, O=Open vSwitch, OU=Open vSwitch certifier, CN=sc id:c0d4cd83-8796-44f8-b1ad-736733a99a31
        Subject Public Key Info:
            Public Key Algorithm: rsaEncryption
                Public-Key: (2048 bit)
                Modulus:
                    00:ed:b2:ca:fa:1c:11:64:83:fa:02:d0:d2:30:28:
                    95:a1:e3:5b:0d:32:d4:b7:e9:18:91:fd:84:9a:e7:
                    f0:74:86:5c:f2:ea:85:73:a0:d6:13:11:47:dc:89:
                    a9:c0:0d:69:a8:ed:f3:18:f4:f2:94:19:9d:79:6e:
                    d5:81:2c:39:3c:59:fb:8f:28:80:54:e7:81:b6:9b:
                    f7:5d:0d:d5:cb:38:6a:b4:20:43:d1:64:62:68:59:
                    30:ce:b2:6f:99:a8:88:3b:b2:4e:c4:fd:7f:7b:68:
                    45:7f:b5:78:0b:f0:63:90:e5:8c:e5:12:ca:bd:52:
                    a5:36:b6:e7:80:ba:22:cf:07:b7:26:f4:5b:77:67:
                    50:af:da:a0:2e:f0:fa:dc:86:99:d7:6a:67:28:de:
                    c1:2d:a0:95:43:11:b0:75:ca:4a:8d:d6:e1:9e:6e:
                    c1:41:0e:67:4b:bb:0e:51:22:d1:20:65:b0:b6:3f:
                    46:fe:92:ee:73:f0:09:62:52:df:86:9d:f0:8e:b8:
                    aa:02:99:9d:3a:bd:23:74:f9:2a:05:d3:56:6c:22:
                    3c:70:da:b6:9a:b7:7d:f9:c9:cd:86:f6:6c:d3:5d:
                    b7:56:4e:57:f5:5f:61:fc:0e:9d:5f:cc:e4:2c:f6:
                    c4:32:01:9c:c3:47:7c:64:bf:f1:1c:3a:0e:e0:0c:
                    9d:bf
                Exponent: 65537 (0x10001)
    Signature Algorithm: md5WithRSAEncryption
         cb:b6:24:5c:76:22:57:2b:a4:67:39:1b:97:32:a2:c5:c7:b7:
         7e:a5:f7:36:1b:d3:2d:df:7c:0c:24:12:6f:2f:1e:0b:33:66:
         c5:bd:45:4a:59:8f:e7:8d:47:9a:bc:3a:f8:8b:04:5d:71:8a:
         73:df:f8:6e:83:53:79:35:72:c4:fa:78:45:ca:b8:e9:bc:8c:
         81:04:82:e5:d0:75:e1:76:96:57:e5:25:f4:07:5e:e1:bd:5d:
         df:46:37:d9:88:c7:cb:c6:33:d6:d6:6d:6c:b4:8a:6d:f6:1a:
         d2:db:53:d3:0c:b6:bc:f2:8a:a1:45:5c:25:1b:f5:b5:c0:04:
         19:22:d0:c7:0f:90:39:0f:2c:17:4f:89:f7:c5:2c:23:e8:1c:
         24:0e:db:ba:da:02:b2:03:97:ff:a2:22:6d:21:cb:bb:32:bd:
         bd:40:e0:29:10:a5:1d:d8:cb:6a:11:8c:69:d2:2b:22:25:30:
         9f:e7:b4:08:93:f1:55:6a:19:2d:7e:a7:83:c9:86:b6:8a:b9:
         78:79:b7:36:27:1d:4d:45:ef:45:a1:f1:e7:70:c4:f8:03:3b:
         05:1d:ea:11:e5:e9:32:44:fc:49:ca:86:76:89:7e:01:3a:58:
         ec:2c:18:ee:01:af:40:4b:58:0c:46:b5:3d:67:09:7b:b2:61:
         c0:a2:3e:8a
-----BEGIN CERTIFICATE-----
MIIDfjCCAmYCAQIwDQYJKoZIhvcNAQEEBQAwgYExCzAJBgNVBAYTAlVTMQswCQYD
VQQIEwJDQTEVMBMGA1UEChMMT3BlbiB2U3dpdGNoMREwDwYDVQQLEwhzd2l0Y2hj
YTE7MDkGA1UEAxMyT1ZTIHN3aXRjaGNhIENBIENlcnRpZmljYXRlICgyMDEzIE1h
eSAxOCAxMTo1NjowNCkwHhcNMTMwNTE4MDY0NjE3WhcNMTQwNTE4MDY0NjE3WjCB
hzELMAkGA1UEBhMCVVMxCzAJBgNVBAgTAkNBMRUwEwYDVQQKEwxPcGVuIHZTd2l0
Y2gxHzAdBgNVBAsTFk9wZW4gdlN3aXRjaCBjZXJ0aWZpZXIxMzAxBgNVBAMTKnNj
IGlkOmMwZDRjZDgzLTg3OTYtNDRmOC1iMWFkLTczNjczM2E5OWEzMTCCASIwDQYJ
KoZIhvcNAQEBBQADggEPADCCAQoCggEBAO2yyvocEWSD+gLQ0jAolaHjWw0y1Lfp
GJH9hJrn8HSGXPLqhXOg1hMRR9yJqcANaajt8xj08pQZnXlu1YEsOTxZ+48ogFTn
gbab910N1cs4arQgQ9FkYmhZMM6yb5moiDuyTsT9f3toRX+1eAvwY5DljOUSyr1S
pTa254C6Is8Htyb0W3dnUK/aoC7w+tyGmddqZyjewS2glUMRsHXKSo3W4Z5uwUEO
Z0u7DlEi0SBlsLY/Rv6S7nPwCWJS34ad8I64qgKZnTq9I3T5KgXTVmwiPHDatpq3
ffnJzYb2bNNdt1ZOV/VfYfwOnV/M5Cz2xDIBnMNHfGS/8Rw6DuAMnb8CAwEAATAN
BgkqhkiG9w0BAQQFAAOCAQEAy7YkXHYiVyukZzkblzKixce3fqX3NhvTLd98DCQS
by8eCzNmxb1FSlmP541Hmrw6+IsEXXGKc9/4boNTeTVyxPp4Rcq46byMgQSC5dB1
4XaWV+Ul9Ade4b1d30Y32YjHy8Yz1tZtbLSKbfYa0ttT0wy2vPKKoUVcJRv1tcAE
GSLQxw+QOQ8sF0+J98UsI+gcJA7butoCsgOX/6IibSHLuzK9vUDgKRClHdjLahGM
adIrIiUwn+e0CJPxVWoZLX6ng8mGtoq5eHm3NicdTUXvRaHx53DE+AM7BR3qEeXp
MkT8ScqGdol+ATpY7CwY7gGvQEtYDEa1PWcJe7JhwKI+ig==
-----END CERTIFICATE-----
